; Function Attrs: nounwind uwtable
define dso_local i64 @multirange_send(ptr noundef readonly captures(none) %0) local_unnamed_addr #0 {
  %2 = getelementptr inbounds nuw i8, ptr %0, i64 32
  %3 = load i64, ptr %2, align 8
  %4 = inttoptr i64 %3 to ptr
  %5 = tail call ptr @pg_detoast_datum(ptr noundef %4) #11
  %6 = getelementptr inbounds nuw i8, ptr %5, i64 4
  %7 = load i32, ptr %6, align 4
  %8 = tail call ptr @makeStringInfo() #11
  %9 = tail call fastcc ptr @get_multirange_io_data(ptr noundef %0, i32 noundef %7, i32 noundef 3)
  tail call void @pq_begintypsend(ptr noundef %8) #11
  %10 = getelementptr inbounds nuw i8, ptr %5, i64 8
  %11 = load i32, ptr %10, align 4
  tail call void @enlargeStringInfo(ptr noundef %8, i32 noundef 4) #11
  tail call void @llvm.experimental.noalias.scope.decl(metadata !14)
  %12 = tail call i32 @llvm.bswap.i32(i32 %11)
  %13 = load ptr, ptr %8, align 8, !alias.scope !14
  %14 = getelementptr inbounds nuw i8, ptr %8, i64 8
  %15 = load i32, ptr %14, align 8, !alias.scope !14
  %16 = sext i32 %15 to i64
  %17 = getelementptr inbounds i8, ptr %13, i64 %16
  store i32 %12, ptr %17, align 1, !noalias !14
  %18 = add i32 %15, 4
  store i32 %18, ptr %14, align 8, !alias.scope !14
  %19 = load ptr, ptr %9, align 8
  %20 = getelementptr inbounds nuw i8, ptr %19, i64 440
  %21 = load ptr, ptr %20, align 8
  %22 = load i32, ptr %10, align 4
  %23 = icmp sgt i32 %22, 0
  br i1 %23, label %24, label %._crit_edge

24:                                               ; preds = %1
  %25 = zext nneg i32 %22 to i64
  %26 = shl nuw nsw i64 %25, 3
  %27 = tail call ptr @palloc(i64 noundef %26) #11
  br label %.lr.ph.i

.lr.ph.i:                                         ; preds = %24, %.lr.ph.i
  %indvars.iv.i = phi i64 [ %indvars.iv.next.i, %.lr.ph.i ], [ 0, %24 ]
  %28 = trunc nuw nsw i64 %indvars.iv.i to i32
  %29 = tail call ptr @multirange_get_range(ptr noundef readonly %21, ptr noundef %5, i32 noundef %28)
  %30 = getelementptr inbounds nuw ptr, ptr %27, i64 %indvars.iv.i
  store ptr %29, ptr %30, align 8
  %indvars.iv.next.i = add nuw nsw i64 %indvars.iv.i, 1
  %exitcond.not = icmp eq i64 %indvars.iv.next.i, %25
  br i1 %exitcond.not, label %.lr.ph, label %.lr.ph.i, !llvm.loop !11

.lr.ph:                                           ; preds = %.lr.ph.i
  %31 = getelementptr inbounds nuw i8, ptr %9, i64 8
  %wide.trip.count = zext nneg i32 %22 to i64
  br label %34

._crit_edge:                                      ; preds = %34, %1
  %32 = tail call ptr @pq_endtypsend(ptr noundef nonnull %8) #11
  %33 = ptrtoint ptr %32 to i64
  ret i64 %33

34:                                               ; preds = %.lr.ph, %34
  %indvars.iv = phi i64 [ 0, %.lr.ph ], [ %indvars.iv.next, %34 ]
  %35 = getelementptr inbounds nuw ptr, ptr %27, i64 %indvars.iv
  %36 = load ptr, ptr %35, align 8
  %37 = ptrtoint ptr %36 to i64
  %38 = tail call ptr @SendFunctionCall(ptr noundef nonnull %31, i64 noundef %37) #11
  %39 = load i32, ptr %38, align 4
  %40 = lshr i32 %39, 2
  %41 = add nsw i32 %40, -4
  tail call void @enlargeStringInfo(ptr noundef nonnull %8, i32 noundef 4) #11
  tail call void @llvm.experimental.noalias.scope.decl(metadata !17)
  %42 = tail call i32 @llvm.bswap.i32(i32 %41)
  %43 = load ptr, ptr %8, align 8, !alias.scope !17
  %44 = load i32, ptr %14, align 8, !alias.scope !17
  %45 = sext i32 %44 to i64
  %46 = getelementptr inbounds i8, ptr %43, i64 %45
  store i32 %42, ptr %46, align 1, !noalias !17
  %47 = add i32 %44, 4
  store i32 %47, ptr %14, align 8, !alias.scope !17
  %48 = getelementptr inbounds nuw i8, ptr %38, i64 4
  %49 = load i32, ptr %38, align 4
  %50 = lshr i32 %49, 2
  %51 = add nsw i32 %50, -4
  tail call void @pq_sendbytes(ptr noundef nonnull %8, ptr noundef nonnull %48, i32 noundef %51) #11
  %indvars.iv.next = add nuw nsw i64 %indvars.iv, 1
  %exitcond25.not = icmp eq i64 %indvars.iv.next, %wide.trip.count
  br i1 %exitcond25.not, label %._crit_edge, label %34, !llvm.loop !20
}